target datalayout = "e-m:e-p270:32:32-p271:32:32-p272:64:64-i64:64-i128:128-f80:128-n8:16:32:64-S128"
target triple = "x86_64-pc-linux-gnu"

; Function Attrs: null_pointer_is_valid sspstrong uwtable
define internal ptr @wrap_dissect_ntlmssp_payload_only(ptr noundef %0, ptr noundef %1, ptr noundef %2, ptr noundef %3, ptr noundef %4, ptr noundef %5) #0 {
  %7 = alloca ptr, align 8
  %8 = alloca ptr, align 8
  %9 = alloca ptr, align 8
  %10 = alloca ptr, align 8
  %11 = alloca ptr, align 8
  %12 = alloca ptr, align 8
  %13 = alloca ptr, align 8
  store ptr %0, ptr %7, align 8
  store ptr %1, ptr %8, align 8
  store ptr %2, ptr %9, align 8
  store ptr %3, ptr %10, align 8
  store ptr %4, ptr %11, align 8
  store ptr %5, ptr %12, align 8
  call void @llvm.lifetime.start.p0(i64 8, ptr %13) #17
  %14 = load ptr, ptr %8, align 8
  %15 = load ptr, ptr %11, align 8
  %16 = call i32 @dissect_ntlmssp_payload_only(ptr noundef %14, ptr noundef %15, ptr noundef null, ptr noundef %13)
  %17 = load ptr, ptr %8, align 8
  %18 = load ptr, ptr %11, align 8
  call void @decrypt_verifier(ptr noundef %17, ptr noundef %18)
  %19 = load ptr, ptr %13, align 8
  call void @llvm.lifetime.end.p0(i64 8, ptr %13) #17
  ret ptr %19
}