; Function Attrs: null_pointer_is_valid sspstrong uwtable
define internal ptr @wrap_dissect_ntlmssp_payload_only(ptr readnone captures(none) %0, ptr noundef %1, ptr readnone captures(none) %2, ptr readnone captures(none) %3, ptr noundef %4, ptr readnone captures(none) %5) #0 {
  %7 = alloca ptr, align 8
  call void @llvm.lifetime.start.p0(i64 8, ptr nonnull %7) #17
  %8 = call i32 @dissect_ntlmssp_payload_only(ptr noundef %1, ptr noundef %4, ptr noundef null, ptr noundef nonnull %7)
  call fastcc void @decrypt_verifier(ptr noundef %1, ptr noundef %4)
  %9 = load ptr, ptr %7, align 8
  call void @llvm.lifetime.end.p0(i64 8, ptr nonnull %7) #17
  ret ptr %9
}